target datalayout = "e-m:e-p270:32:32-p271:32:32-p272:64:64-i64:64-i128:128-f80:128-n8:16:32:64-S128"
target triple = "x86_64-unknown-linux-gnu"

%"class.std::__cxx11::basic_string" = type { %"struct.std::__cxx11::basic_string<char>::_Alloc_hider", i64, %union.anon }
%"struct.std::__cxx11::basic_string<char>::_Alloc_hider" = type { ptr }
%union.anon = type { i64, [8 x i8] }
%"class.facebook::velox::common::Filter" = type { %"class.facebook::velox::ISerializable", i8, i8, i32 }
%"class.facebook::velox::ISerializable" = type { ptr }
%"class.facebook::velox::common::AbstractRange.base" = type <{ %"class.facebook::velox::common::Filter", i8, i8, i8, i8 }>
%"class.facebook::velox::common::AbstractRange" = type <{ %"class.facebook::velox::common::Filter", i8, i8, i8, i8, [4 x i8] }>
%"class.facebook::velox::common::BytesRange" = type <{ %"class.facebook::velox::common::AbstractRange.base", [4 x i8], %"class.std::__cxx11::basic_string", %"class.std::__cxx11::basic_string", i8, [7 x i8] }>

; Function Attrs: mustprogress nounwind uwtable
define linkonce_odr noundef nonnull align 8 dereferenceable(8) ptr @_ZSt3minImERKT_S2_S2_(ptr noundef nonnull align 8 dereferenceable(8) %__a, ptr noundef nonnull align 8 dereferenceable(8) %__b) #3 comdat {
entry:
  %retval = alloca ptr, align 8
  %__a.addr = alloca ptr, align 8
  %__b.addr = alloca ptr, align 8
  store ptr %__a, ptr %__a.addr, align 8
  store ptr %__b, ptr %__b.addr, align 8
  %0 = load ptr, ptr %__b.addr, align 8
  %1 = load i64, ptr %0, align 8
  %2 = load ptr, ptr %__a.addr, align 8
  %3 = load i64, ptr %2, align 8
  %cmp = icmp ult i64 %1, %3
  br i1 %cmp, label %if.then, label %if.end

if.then:                                          ; preds = %entry
  %4 = load ptr, ptr %__b.addr, align 8
  store ptr %4, ptr %retval, align 8
  br label %return

if.end:                                           ; preds = %entry
  %5 = load ptr, ptr %__a.addr, align 8
  store ptr %5, ptr %retval, align 8
  br label %return

return:                                           ; preds = %if.end, %if.then
  %6 = load ptr, ptr %retval, align 8
  ret ptr %6
}

; Function Attrs: mustprogress nounwind uwtable
define internal noundef i32 @_ZN8facebook5velox6common12_GLOBAL__N_113compareRangesEPKcmRKNSt7__cxx1112basic_stringIcSt11char_traitsIcESaIcEEE(ptr noundef %lhs, i64 noundef %length, ptr noundef nonnull align 8 dereferenceable(32) %rhs) #3 {
entry:
  %retval = alloca i32, align 4
  %lhs.addr = alloca ptr, align 8
  %length.addr = alloca i64, align 8
  %rhs.addr = alloca ptr, align 8
  %size = alloca i32, align 4
  %ref.tmp = alloca i64, align 8
  %compare = alloca i32, align 4
  store ptr %lhs, ptr %lhs.addr, align 8
  store i64 %length, ptr %length.addr, align 8
  store ptr %rhs, ptr %rhs.addr, align 8
  %0 = load ptr, ptr %rhs.addr, align 8
  %call = call noundef i64 @_ZNKSt7__cxx1112basic_stringIcSt11char_traitsIcESaIcEE6lengthEv(ptr noundef nonnull align 8 dereferenceable(32) %0) #13
  store i64 %call, ptr %ref.tmp, align 8
  %call1 = call noundef nonnull align 8 dereferenceable(8) ptr @_ZSt3minImERKT_S2_S2_(ptr noundef nonnull align 8 dereferenceable(8) %length.addr, ptr noundef nonnull align 8 dereferenceable(8) %ref.tmp)
  %1 = load i64, ptr %call1, align 8
  %conv = trunc i64 %1 to i32
  store i32 %conv, ptr %size, align 4
  %2 = load ptr, ptr %lhs.addr, align 8
  %3 = load ptr, ptr %rhs.addr, align 8
  %call2 = call noundef ptr @_ZNKSt7__cxx1112basic_stringIcSt11char_traitsIcESaIcEE4dataEv(ptr noundef nonnull align 8 dereferenceable(32) %3) #13
  %4 = load i32, ptr %size, align 4
  %conv3 = sext i32 %4 to i64
  %call4 = call i32 @memcmp(ptr noundef %2, ptr noundef %call2, i64 noundef %conv3) #4
  store i32 %call4, ptr %compare, align 4
  %5 = load i32, ptr %compare, align 4
  %tobool = icmp ne i32 %5, 0
  br i1 %tobool, label %if.then, label %if.end

if.then:                                          ; preds = %entry
  %6 = load i32, ptr %compare, align 4
  store i32 %6, ptr %retval, align 4
  br label %return

if.end:                                           ; preds = %entry
  %7 = load i64, ptr %length.addr, align 8
  %8 = load ptr, ptr %rhs.addr, align 8
  %call5 = call noundef i64 @_ZNKSt7__cxx1112basic_stringIcSt11char_traitsIcESaIcEE4sizeEv(ptr noundef nonnull align 8 dereferenceable(32) %8) #13
  %sub = sub i64 %7, %call5
  %conv6 = trunc i64 %sub to i32
  store i32 %conv6, ptr %retval, align 4
  br label %return

return:                                           ; preds = %if.end, %if.then
  %9 = load i32, ptr %retval, align 4
  ret i32 %9
}

; Function Attrs: mustprogress uwtable
define noundef zeroext i1 @_ZNK8facebook5velox6common10BytesRange9testBytesEPKci(ptr noundef nonnull align 8 dereferenceable(96) %this, ptr noundef %value, i32 noundef %length) unnamed_addr #0 align 2 {
entry:
  %retval = alloca i1, align 1
  %this.addr = alloca ptr, align 8
  %value.addr = alloca ptr, align 8
  %length.addr = alloca i32, align 4
  %compare = alloca i32, align 4
  %compare36 = alloca i32, align 4
  store ptr %this, ptr %this.addr, align 8
  store ptr %value, ptr %value.addr, align 8
  store i32 %length, ptr %length.addr, align 4
  %this1 = load ptr, ptr %this.addr, align 8
  %0 = load i32, ptr %length.addr, align 4
  %cmp = icmp eq i32 %0, 0
  br i1 %cmp, label %if.then, label %if.end7

if.then:                                          ; preds = %entry
  %lowerUnbounded_ = getelementptr inbounds %"class.facebook::velox::common::AbstractRange", ptr %this1, i32 0, i32 1
  %1 = load i8, ptr %lowerUnbounded_, align 8
  %tobool = trunc i8 %1 to i1
  br i1 %tobool, label %if.then2, label %if.end

if.then2:                                         ; preds = %if.then
  %upper_ = getelementptr inbounds %"class.facebook::velox::common::BytesRange", ptr %this1, i32 0, i32 3
  %call = call noundef zeroext i1 @_ZNKSt7__cxx1112basic_stringIcSt11char_traitsIcESaIcEE5emptyEv(ptr noundef nonnull align 8 dereferenceable(32) %upper_) #13
  br i1 %call, label %lor.rhs, label %lor.end

lor.rhs:                                          ; preds = %if.then2
  %upperExclusive_ = getelementptr inbounds %"class.facebook::velox::common::AbstractRange", ptr %this1, i32 0, i32 4
  %2 = load i8, ptr %upperExclusive_, align 1
  %tobool3 = trunc i8 %2 to i1
  %lnot = xor i1 %tobool3, true
  br label %lor.end

lor.end:                                          ; preds = %lor.rhs, %if.then2
  %3 = phi i1 [ true, %if.then2 ], [ %lnot, %lor.rhs ]
  store i1 %3, ptr %retval, align 1
  br label %return

if.end:                                           ; preds = %if.then
  %lower_ = getelementptr inbounds %"class.facebook::velox::common::BytesRange", ptr %this1, i32 0, i32 2
  %call4 = call noundef zeroext i1 @_ZNKSt7__cxx1112basic_stringIcSt11char_traitsIcESaIcEE5emptyEv(ptr noundef nonnull align 8 dereferenceable(32) %lower_) #13
  br i1 %call4, label %land.rhs, label %land.end

land.rhs:                                         ; preds = %if.end
  %lowerExclusive_ = getelementptr inbounds %"class.facebook::velox::common::AbstractRange", ptr %this1, i32 0, i32 2
  %4 = load i8, ptr %lowerExclusive_, align 1
  %tobool5 = trunc i8 %4 to i1
  %lnot6 = xor i1 %tobool5, true
  br label %land.end

land.end:                                         ; preds = %land.rhs, %if.end
  %5 = phi i1 [ false, %if.end ], [ %lnot6, %land.rhs ]
  store i1 %5, ptr %retval, align 1
  br label %return

if.end7:                                          ; preds = %entry
  %singleValue_ = getelementptr inbounds %"class.facebook::velox::common::BytesRange", ptr %this1, i32 0, i32 4
  %6 = load i8, ptr %singleValue_, align 8
  %tobool8 = trunc i8 %6 to i1
  br i1 %tobool8, label %if.then9, label %if.end20

if.then9:                                         ; preds = %if.end7
  %7 = load i32, ptr %length.addr, align 4
  %conv = sext i32 %7 to i64
  %lower_10 = getelementptr inbounds %"class.facebook::velox::common::BytesRange", ptr %this1, i32 0, i32 2
  %call11 = call noundef i64 @_ZNKSt7__cxx1112basic_stringIcSt11char_traitsIcESaIcEE4sizeEv(ptr noundef nonnull align 8 dereferenceable(32) %lower_10) #13
  %cmp12 = icmp ne i64 %conv, %call11
  br i1 %cmp12, label %if.then13, label %if.end14

if.then13:                                        ; preds = %if.then9
  store i1 false, ptr %retval, align 1
  br label %return

if.end14:                                         ; preds = %if.then9
  %8 = load ptr, ptr %value.addr, align 8
  %lower_15 = getelementptr inbounds %"class.facebook::velox::common::BytesRange", ptr %this1, i32 0, i32 2
  %call16 = call noundef ptr @_ZNKSt7__cxx1112basic_stringIcSt11char_traitsIcESaIcEE4dataEv(ptr noundef nonnull align 8 dereferenceable(32) %lower_15) #13
  %9 = load i32, ptr %length.addr, align 4
  %conv17 = sext i32 %9 to i64
  %call18 = call i32 @memcmp(ptr noundef %8, ptr noundef %call16, i64 noundef %conv17) #4
  %cmp19 = icmp eq i32 %call18, 0
  store i1 %cmp19, ptr %retval, align 1
  br label %return

if.end20:                                         ; preds = %if.end7
  %lowerUnbounded_21 = getelementptr inbounds %"class.facebook::velox::common::AbstractRange", ptr %this1, i32 0, i32 1
  %10 = load i8, ptr %lowerUnbounded_21, align 8
  %tobool22 = trunc i8 %10 to i1
  br i1 %tobool22, label %if.end33, label %if.then23

if.then23:                                        ; preds = %if.end20
  %11 = load ptr, ptr %value.addr, align 8
  %12 = load i32, ptr %length.addr, align 4
  %conv24 = sext i32 %12 to i64
  %lower_25 = getelementptr inbounds %"class.facebook::velox::common::BytesRange", ptr %this1, i32 0, i32 2
  %call26 = call noundef i32 @_ZN8facebook5velox6common12_GLOBAL__N_113compareRangesEPKcmRKNSt7__cxx1112basic_stringIcSt11char_traitsIcESaIcEEE(ptr noundef %11, i64 noundef %conv24, ptr noundef nonnull align 8 dereferenceable(32) %lower_25)
  store i32 %call26, ptr %compare, align 4
  %13 = load i32, ptr %compare, align 4
  %cmp27 = icmp slt i32 %13, 0
  br i1 %cmp27, label %if.then31, label %lor.lhs.false

lor.lhs.false:                                    ; preds = %if.then23
  %lowerExclusive_28 = getelementptr inbounds %"class.facebook::velox::common::AbstractRange", ptr %this1, i32 0, i32 2
  %14 = load i8, ptr %lowerExclusive_28, align 1
  %tobool29 = trunc i8 %14 to i1
  br i1 %tobool29, label %land.lhs.true, label %if.end32

land.lhs.true:                                    ; preds = %lor.lhs.false
  %15 = load i32, ptr %compare, align 4
  %cmp30 = icmp eq i32 %15, 0
  br i1 %cmp30, label %if.then31, label %if.end32

if.then31:                                        ; preds = %land.lhs.true, %if.then23
  store i1 false, ptr %retval, align 1
  br label %return

if.end32:                                         ; preds = %land.lhs.true, %lor.lhs.false
  br label %if.end33

if.end33:                                         ; preds = %if.end32, %if.end20
  %upperUnbounded_ = getelementptr inbounds %"class.facebook::velox::common::AbstractRange", ptr %this1, i32 0, i32 3
  %16 = load i8, ptr %upperUnbounded_, align 2
  %tobool34 = trunc i8 %16 to i1
  br i1 %tobool34, label %if.end48, label %if.then35

if.then35:                                        ; preds = %if.end33
  %17 = load ptr, ptr %value.addr, align 8
  %18 = load i32, ptr %length.addr, align 4
  %conv37 = sext i32 %18 to i64
  %upper_38 = getelementptr inbounds %"class.facebook::velox::common::BytesRange", ptr %this1, i32 0, i32 3
  %call39 = call noundef i32 @_ZN8facebook5velox6common12_GLOBAL__N_113compareRangesEPKcmRKNSt7__cxx1112basic_stringIcSt11char_traitsIcESaIcEEE(ptr noundef %17, i64 noundef %conv37, ptr noundef nonnull align 8 dereferenceable(32) %upper_38)
  store i32 %call39, ptr %compare36, align 4
  %19 = load i32, ptr %compare36, align 4
  %cmp40 = icmp slt i32 %19, 0
  br i1 %cmp40, label %lor.end47, label %lor.rhs41

lor.rhs41:                                        ; preds = %if.then35
  %upperExclusive_42 = getelementptr inbounds %"class.facebook::velox::common::AbstractRange", ptr %this1, i32 0, i32 4
  %20 = load i8, ptr %upperExclusive_42, align 1
  %tobool43 = trunc i8 %20 to i1
  br i1 %tobool43, label %land.end46, label %land.rhs44

land.rhs44:                                       ; preds = %lor.rhs41
  %21 = load i32, ptr %compare36, align 4
  %cmp45 = icmp eq i32 %21, 0
  br label %land.end46

land.end46:                                       ; preds = %land.rhs44, %lor.rhs41
  %22 = phi i1 [ false, %lor.rhs41 ], [ %cmp45, %land.rhs44 ]
  br label %lor.end47

lor.end47:                                        ; preds = %land.end46, %if.then35
  %23 = phi i1 [ true, %if.then35 ], [ %22, %land.end46 ]
  store i1 %23, ptr %retval, align 1
  br label %return

if.end48:                                         ; preds = %if.end33
  store i1 true, ptr %retval, align 1
  br label %return

return:                                           ; preds = %if.end48, %lor.end47, %if.then31, %if.end14, %if.then13, %land.end, %lor.end
  %24 = load i1, ptr %retval, align 1
  ret i1 %24
}