; Function Attrs: mustprogress nounwind uwtable
define noundef zeroext i1 @_ZNK8facebook5velox6common10BytesRange9testBytesEPKci(ptr noundef nonnull align 8 dereferenceable(96) %this, ptr nocapture noundef readonly %value, i32 noundef %length) unnamed_addr #4 align 2 {
entry:
  %cmp = icmp eq i32 %length, 0
  br i1 %cmp, label %if.then, label %if.end7

if.then:                                          ; preds = %entry
  %lowerUnbounded_ = getelementptr inbounds i8, ptr %this, i64 16
  %0 = load i8, ptr %lowerUnbounded_, align 8
  %1 = and i8 %0, 1
  %tobool.not = icmp eq i8 %1, 0
  br i1 %tobool.not, label %if.end, label %if.then2

if.then2:                                         ; preds = %if.then
  %upper_ = getelementptr inbounds i8, ptr %this, i64 56
  %call = tail call noundef zeroext i1 @_ZNKSt7__cxx1112basic_stringIcSt11char_traitsIcESaIcEE5emptyEv(ptr noundef nonnull align 8 dereferenceable(32) %upper_) #34
  %upperExclusive_ = getelementptr inbounds i8, ptr %this, i64 19
  %2 = load i8, ptr %upperExclusive_, align 1
  %3 = and i8 %2, 1
  %tobool3.not = icmp eq i8 %3, 0
  %not.call = xor i1 %call, true
  %4 = select i1 %not.call, i1 true, i1 %tobool3.not
  br label %return

if.end:                                           ; preds = %if.then
  %lower_ = getelementptr inbounds i8, ptr %this, i64 24
  %call4 = tail call noundef zeroext i1 @_ZNKSt7__cxx1112basic_stringIcSt11char_traitsIcESaIcEE5emptyEv(ptr noundef nonnull align 8 dereferenceable(32) %lower_) #34
  %lowerExclusive_ = getelementptr inbounds i8, ptr %this, i64 17
  %5 = load i8, ptr %lowerExclusive_, align 1
  %6 = and i8 %5, 1
  %tobool5.not = icmp eq i8 %6, 0
  %7 = select i1 %call4, i1 %tobool5.not, i1 false
  br label %return

if.end7:                                          ; preds = %entry
  %singleValue_ = getelementptr inbounds i8, ptr %this, i64 88
  %8 = load i8, ptr %singleValue_, align 8
  %9 = and i8 %8, 1
  %tobool8.not = icmp eq i8 %9, 0
  br i1 %tobool8.not, label %if.end20, label %if.then9

if.then9:                                         ; preds = %if.end7
  %conv = sext i32 %length to i64
  %lower_10 = getelementptr inbounds i8, ptr %this, i64 24
  %call11 = tail call noundef i64 @_ZNKSt7__cxx1112basic_stringIcSt11char_traitsIcESaIcEE4sizeEv(ptr noundef nonnull align 8 dereferenceable(32) %lower_10) #34
  %cmp12.not = icmp eq i64 %call11, %conv
  br i1 %cmp12.not, label %if.end14, label %return

if.end14:                                         ; preds = %if.then9
  %call16 = tail call noundef ptr @_ZNKSt7__cxx1112basic_stringIcSt11char_traitsIcESaIcEE4dataEv(ptr noundef nonnull align 8 dereferenceable(32) %lower_10) #34
  %bcmp = tail call i32 @bcmp(ptr %value, ptr %call16, i64 %conv)
  %cmp19 = icmp eq i32 %bcmp, 0
  br label %return

if.end20:                                         ; preds = %if.end7
  %lowerUnbounded_21 = getelementptr inbounds i8, ptr %this, i64 16
  %10 = load i8, ptr %lowerUnbounded_21, align 8
  %11 = and i8 %10, 1
  %tobool22.not = icmp eq i8 %11, 0
  br i1 %tobool22.not, label %if.then23, label %if.end33

if.then23:                                        ; preds = %if.end20
  %conv24 = sext i32 %length to i64
  %lower_25 = getelementptr inbounds i8, ptr %this, i64 24
  %call.i = tail call noundef i64 @_ZNKSt7__cxx1112basic_stringIcSt11char_traitsIcESaIcEE6lengthEv(ptr noundef nonnull align 8 dereferenceable(32) %lower_25) #34
  %.sroa.speculated.i = tail call i64 @llvm.umin.i64(i64 %call.i, i64 %conv24)
  %call2.i = tail call noundef ptr @_ZNKSt7__cxx1112basic_stringIcSt11char_traitsIcESaIcEE4dataEv(ptr noundef nonnull align 8 dereferenceable(32) %lower_25) #34
  %sext.i = shl i64 %.sroa.speculated.i, 32
  %conv3.i = ashr exact i64 %sext.i, 32
  %call4.i = tail call i32 @memcmp(ptr noundef %value, ptr noundef %call2.i, i64 noundef %conv3.i) #40
  %tobool.not.i = icmp eq i32 %call4.i, 0
  br i1 %tobool.not.i, label %if.end.i, label %_ZN8facebook5velox6common12_GLOBAL__N_113compareRangesEPKcmRKNSt7__cxx1112basic_stringIcSt11char_traitsIcESaIcEEE.exit

if.end.i:                                         ; preds = %if.then23
  %call5.i = tail call noundef i64 @_ZNKSt7__cxx1112basic_stringIcSt11char_traitsIcESaIcEE4sizeEv(ptr noundef nonnull align 8 dereferenceable(32) %lower_25) #34
  %12 = trunc i64 %call5.i to i32
  %conv6.i = sub i32 %length, %12
  br label %_ZN8facebook5velox6common12_GLOBAL__N_113compareRangesEPKcmRKNSt7__cxx1112basic_stringIcSt11char_traitsIcESaIcEEE.exit

_ZN8facebook5velox6common12_GLOBAL__N_113compareRangesEPKcmRKNSt7__cxx1112basic_stringIcSt11char_traitsIcESaIcEEE.exit: ; preds = %if.then23, %if.end.i
  %retval.0.i = phi i32 [ %conv6.i, %if.end.i ], [ %call4.i, %if.then23 ]
  %cmp27 = icmp slt i32 %retval.0.i, 0
  br i1 %cmp27, label %return, label %lor.lhs.false

lor.lhs.false:                                    ; preds = %_ZN8facebook5velox6common12_GLOBAL__N_113compareRangesEPKcmRKNSt7__cxx1112basic_stringIcSt11char_traitsIcESaIcEEE.exit
  %lowerExclusive_28 = getelementptr inbounds i8, ptr %this, i64 17
  %13 = load i8, ptr %lowerExclusive_28, align 1
  %14 = and i8 %13, 1
  %tobool29 = icmp ne i8 %14, 0
  %cmp30 = icmp eq i32 %retval.0.i, 0
  %or.cond = and i1 %cmp30, %tobool29
  br i1 %or.cond, label %return, label %if.end33

if.end33:                                         ; preds = %lor.lhs.false, %if.end20
  %upperUnbounded_ = getelementptr inbounds i8, ptr %this, i64 18
  %15 = load i8, ptr %upperUnbounded_, align 2
  %16 = and i8 %15, 1
  %tobool34.not = icmp eq i8 %16, 0
  br i1 %tobool34.not, label %if.then35, label %return

if.then35:                                        ; preds = %if.end33
  %conv37 = sext i32 %length to i64
  %upper_38 = getelementptr inbounds i8, ptr %this, i64 56
  %call.i9 = tail call noundef i64 @_ZNKSt7__cxx1112basic_stringIcSt11char_traitsIcESaIcEE6lengthEv(ptr noundef nonnull align 8 dereferenceable(32) %upper_38) #34
  %.sroa.speculated.i10 = tail call i64 @llvm.umin.i64(i64 %call.i9, i64 %conv37)
  %call2.i11 = tail call noundef ptr @_ZNKSt7__cxx1112basic_stringIcSt11char_traitsIcESaIcEE4dataEv(ptr noundef nonnull align 8 dereferenceable(32) %upper_38) #34
  %sext.i12 = shl i64 %.sroa.speculated.i10, 32
  %conv3.i13 = ashr exact i64 %sext.i12, 32
  %call4.i14 = tail call i32 @memcmp(ptr noundef %value, ptr noundef %call2.i11, i64 noundef %conv3.i13) #40
  %tobool.not.i15 = icmp eq i32 %call4.i14, 0
  br i1 %tobool.not.i15, label %if.end.i17, label %_ZN8facebook5velox6common12_GLOBAL__N_113compareRangesEPKcmRKNSt7__cxx1112basic_stringIcSt11char_traitsIcESaIcEEE.exit21

if.end.i17:                                       ; preds = %if.then35
  %call5.i18 = tail call noundef i64 @_ZNKSt7__cxx1112basic_stringIcSt11char_traitsIcESaIcEE4sizeEv(ptr noundef nonnull align 8 dereferenceable(32) %upper_38) #34
  %17 = trunc i64 %call5.i18 to i32
  %conv6.i20 = sub i32 %length, %17
  br label %_ZN8facebook5velox6common12_GLOBAL__N_113compareRangesEPKcmRKNSt7__cxx1112basic_stringIcSt11char_traitsIcESaIcEEE.exit21

_ZN8facebook5velox6common12_GLOBAL__N_113compareRangesEPKcmRKNSt7__cxx1112basic_stringIcSt11char_traitsIcESaIcEEE.exit21: ; preds = %if.then35, %if.end.i17
  %retval.0.i16 = phi i32 [ %conv6.i20, %if.end.i17 ], [ %call4.i14, %if.then35 ]
  %cmp40 = icmp slt i32 %retval.0.i16, 0
  br i1 %cmp40, label %return, label %lor.rhs41

lor.rhs41:                                        ; preds = %_ZN8facebook5velox6common12_GLOBAL__N_113compareRangesEPKcmRKNSt7__cxx1112basic_stringIcSt11char_traitsIcESaIcEEE.exit21
  %upperExclusive_42 = getelementptr inbounds i8, ptr %this, i64 19
  %18 = load i8, ptr %upperExclusive_42, align 1
  %19 = and i8 %18, 1
  %tobool43.not = icmp eq i8 %19, 0
  %cmp45 = icmp eq i32 %retval.0.i16, 0
  %20 = and i1 %cmp45, %tobool43.not
  br label %return

return:                                           ; preds = %if.end33, %_ZN8facebook5velox6common12_GLOBAL__N_113compareRangesEPKcmRKNSt7__cxx1112basic_stringIcSt11char_traitsIcESaIcEEE.exit21, %lor.rhs41, %_ZN8facebook5velox6common12_GLOBAL__N_113compareRangesEPKcmRKNSt7__cxx1112basic_stringIcSt11char_traitsIcESaIcEEE.exit, %lor.lhs.false, %if.then9, %if.end14, %if.end, %if.then2
  %retval.0 = phi i1 [ %4, %if.then2 ], [ %7, %if.end ], [ %cmp19, %if.end14 ], [ false, %if.then9 ], [ false, %lor.lhs.false ], [ false, %_ZN8facebook5velox6common12_GLOBAL__N_113compareRangesEPKcmRKNSt7__cxx1112basic_stringIcSt11char_traitsIcESaIcEEE.exit ], [ true, %_ZN8facebook5velox6common12_GLOBAL__N_113compareRangesEPKcmRKNSt7__cxx1112basic_stringIcSt11char_traitsIcESaIcEEE.exit21 ], [ %20, %lor.rhs41 ], [ true, %if.end33 ]
  ret i1 %retval.0
}